; Function Attrs: nounwind sspstrong uwtable
define internal i64 @nurat_to_f(i64 noundef %0) #0 {
  %2 = inttoptr i64 %0 to ptr
  %3 = getelementptr inbounds nuw i8, ptr %2, i64 16
  %4 = load i64, ptr %3, align 8, !tbaa !19
  %5 = and i64 %4, 1
  %.not.i.i = icmp eq i64 %5, 0
  br i1 %.not.i.i, label %6, label %rb_integer_type_p.exit.thread.i

6:                                                ; preds = %1
  %7 = icmp eq i64 %4, 0
  %8 = and i64 %4, 6
  %9 = icmp ne i64 %8, 0
  %10 = or i1 %7, %9
  br i1 %10, label %rb_integer_type_p.exit.thread11.i, label %rb_integer_type_p.exit.i

rb_integer_type_p.exit.i:                         ; preds = %6
  %11 = inttoptr i64 %4 to ptr
  %12 = load i64, ptr %11, align 8, !tbaa !7
  %13 = and i64 %12, 31
  %14 = icmp eq i64 %13, 10
  br i1 %14, label %rb_integer_type_p.exit.thread.i, label %rb_integer_type_p.exit.thread11.i

rb_integer_type_p.exit.thread.i:                  ; preds = %rb_integer_type_p.exit.i, %1
  %15 = getelementptr inbounds nuw i8, ptr %2, i64 24
  %16 = load i64, ptr %15, align 8, !tbaa !21
  %17 = and i64 %16, 1
  %.not.i7.i = icmp eq i64 %17, 0
  br i1 %.not.i7.i, label %18, label %rb_integer_type_p.exit9.thread.i

18:                                               ; preds = %rb_integer_type_p.exit.thread.i
  %19 = icmp eq i64 %16, 0
  %20 = and i64 %16, 6
  %21 = icmp ne i64 %20, 0
  %22 = or i1 %19, %21
  br i1 %22, label %rb_integer_type_p.exit.thread11.i, label %rb_integer_type_p.exit9.i

rb_integer_type_p.exit9.i:                        ; preds = %18
  %23 = inttoptr i64 %16 to ptr
  %24 = load i64, ptr %23, align 8, !tbaa !7
  %25 = and i64 %24, 31
  %26 = icmp eq i64 %25, 10
  br i1 %26, label %rb_integer_type_p.exit9.thread.i, label %rb_integer_type_p.exit.thread11.i

rb_integer_type_p.exit.thread11.i:                ; preds = %rb_integer_type_p.exit9.i, %18, %rb_integer_type_p.exit.i, %6
  %27 = tail call double @rb_num2dbl(i64 noundef %4) #17
  %28 = getelementptr inbounds nuw i8, ptr %2, i64 24
  %29 = load i64, ptr %28, align 8, !tbaa !21
  %30 = tail call double @rb_num2dbl(i64 noundef %29) #17
  %31 = fdiv double %27, %30
  br label %nurat_to_double.exit

rb_integer_type_p.exit9.thread.i:                 ; preds = %rb_integer_type_p.exit9.i, %rb_integer_type_p.exit.thread.i
  %32 = tail call double @rb_int_fdiv_double(i64 noundef %4, i64 noundef %16) #17
  br label %nurat_to_double.exit

nurat_to_double.exit:                             ; preds = %rb_integer_type_p.exit.thread11.i, %rb_integer_type_p.exit9.thread.i
  %.0.i = phi double [ %32, %rb_integer_type_p.exit9.thread.i ], [ %31, %rb_integer_type_p.exit.thread11.i ]
  %33 = bitcast double %.0.i to i64
  %cond.i = icmp eq i64 %33, 3458764513820540928
  br i1 %cond.i, label %45, label %34

34:                                               ; preds = %nurat_to_double.exit
  %35 = lshr i64 %33, 60
  %36 = trunc nuw nsw i64 %35 to i32
  %37 = and i32 %36, 7
  %38 = add nsw i32 %37, -3
  %.not7.i = icmp ult i32 %38, 2
  br i1 %.not7.i, label %39, label %43

39:                                               ; preds = %34
  %40 = tail call noundef i64 @llvm.fshl.i64(i64 range(i64 3458764513820540929, 3458764513820540928) %33, i64 range(i64 3458764513820540929, 3458764513820540928) %33, i64 3)
  %41 = and i64 %40, -4
  %42 = or disjoint i64 %41, 2
  br label %rb_float_new_inline.exit

43:                                               ; preds = %34
  %44 = icmp eq i64 %33, 0
  br i1 %44, label %rb_float_new_inline.exit, label %45

45:                                               ; preds = %43, %nurat_to_double.exit
  %46 = tail call i64 @rb_float_new_in_heap(double noundef %.0.i) #17
  br label %rb_float_new_inline.exit

rb_float_new_inline.exit:                         ; preds = %39, %43, %45
  %.0.i1 = phi i64 [ %46, %45 ], [ %42, %39 ], [ -9223372036854775806, %43 ]
  ret i64 %.0.i1
}